; Function Attrs: mustprogress uwtable
define hidden void @_ZN3sat10aig_finder9find_aigsER10ptr_vectorINS_6clauseEE(ptr noundef nonnull align 8 dereferenceable(160) %0, ptr noundef nonnull readonly align 8 captures(none) dereferenceable(8) %1) local_unnamed_addr #3 align 2 {
  %3 = getelementptr inbounds nuw i8, ptr %0, i64 112
  %4 = load ptr, ptr %3, align 8, !tbaa !28
  %.not.i.i.not = icmp eq ptr %4, null
  br i1 %.not.i.i.not, label %_ZN6vectorIPN3sat6clauseELb0EjE6shrinkEj.exit, label %5

5:                                                ; preds = %2
  %6 = load ptr, ptr %1, align 8, !tbaa !29
  %7 = icmp eq ptr %6, null
  br i1 %7, label %_ZN6vectorIPN3sat6clauseELb0EjE6shrinkEj.exit, label %_ZN6vectorIPN3sat6clauseELb0EjE3endEv.exit

_ZN6vectorIPN3sat6clauseELb0EjE3endEv.exit:       ; preds = %5
  %8 = getelementptr inbounds i8, ptr %6, i64 -4
  %9 = load i32, ptr %8, align 4, !tbaa !33
  %10 = zext i32 %9 to i64
  %11 = getelementptr inbounds nuw ptr, ptr %6, i64 %10
  %.not14 = icmp eq i32 %9, 0
  br i1 %.not14, label %._crit_edge.thread21, label %.lr.ph

._crit_edge:                                      ; preds = %21
  %.pre = load ptr, ptr %1, align 8, !tbaa !29
  %.not.i = icmp eq ptr %.pre, null
  br i1 %.not.i, label %_ZN6vectorIPN3sat6clauseELb0EjE6shrinkEj.exit, label %._crit_edge.thread21

._crit_edge.thread21:                             ; preds = %_ZN6vectorIPN3sat6clauseELb0EjE3endEv.exit, %._crit_edge
  %.0.lcssa24 = phi i32 [ %.1, %._crit_edge ], [ 0, %_ZN6vectorIPN3sat6clauseELb0EjE3endEv.exit ]
  %12 = phi ptr [ %.pre, %._crit_edge ], [ %6, %_ZN6vectorIPN3sat6clauseELb0EjE3endEv.exit ]
  %13 = getelementptr inbounds i8, ptr %12, i64 -4
  store i32 %.0.lcssa24, ptr %13, align 4, !tbaa !33
  br label %_ZN6vectorIPN3sat6clauseELb0EjE6shrinkEj.exit

.lr.ph:                                           ; preds = %_ZN6vectorIPN3sat6clauseELb0EjE3endEv.exit, %21
  %.016 = phi i32 [ %.1, %21 ], [ 0, %_ZN6vectorIPN3sat6clauseELb0EjE3endEv.exit ]
  %.01315 = phi ptr [ %22, %21 ], [ %6, %_ZN6vectorIPN3sat6clauseELb0EjE3endEv.exit ]
  %14 = load ptr, ptr %.01315, align 8, !tbaa !34
  %15 = tail call noundef zeroext i1 @_ZN3sat10aig_finder8find_aigERNS_6clauseE(ptr noundef nonnull align 8 dereferenceable(160) %0, ptr noundef nonnull align 4 dereferenceable(20) %14)
  br i1 %15, label %21, label %16

16:                                               ; preds = %.lr.ph
  %17 = add i32 %.016, 1
  %18 = load ptr, ptr %1, align 8, !tbaa !29
  %19 = zext i32 %.016 to i64
  %20 = getelementptr inbounds nuw ptr, ptr %18, i64 %19
  store ptr %14, ptr %20, align 8, !tbaa !34
  br label %21

21:                                               ; preds = %16, %.lr.ph
  %.1 = phi i32 [ %.016, %.lr.ph ], [ %17, %16 ]
  %22 = getelementptr inbounds nuw i8, ptr %.01315, i64 8
  %.not = icmp eq ptr %22, %11
  br i1 %.not, label %._crit_edge, label %.lr.ph

_ZN6vectorIPN3sat6clauseELb0EjE6shrinkEj.exit:    ; preds = %5, %._crit_edge.thread21, %._crit_edge, %2
  ret void
}